; Function Attrs: nounwind uwtable
define range(i32 -29, 1) i32 @pmix_bfrops_base_embed_payload(ptr noundef captures(none) %0, ptr noundef readonly captures(none) %1) local_unnamed_addr #0 {
  %3 = getelementptr inbounds nuw i8, ptr %0, i64 128
  %4 = load ptr, ptr %3, align 8, !tbaa !20
  %5 = icmp eq ptr %4, null
  br i1 %5, label %6, label %9

6:                                                ; preds = %2
  %7 = load i8, ptr getelementptr inbounds nuw (i8, ptr @pmix_bfrops_globals, i64 296), align 8, !tbaa !36
  %8 = getelementptr inbounds nuw i8, ptr %0, i64 120
  store i8 %7, ptr %8, align 8, !tbaa !23
  br label %9

9:                                                ; preds = %6, %2
  %10 = load ptr, ptr %1, align 8, !tbaa !37
  %11 = icmp eq ptr %10, null
  br i1 %11, label %pmix_bfrops_base_tma_embed_payload.exit, label %12

12:                                               ; preds = %9
  %13 = getelementptr inbounds nuw i8, ptr %1, i64 8
  %14 = load i64, ptr %13, align 8, !tbaa !39
  %15 = icmp eq i64 %14, 0
  br i1 %15, label %16, label %19

16:                                               ; preds = %12
  %17 = getelementptr inbounds nuw i8, ptr %0, i64 136
  %18 = load ptr, ptr %17, align 8, !tbaa !25
  br label %pmix_bfrops_base_tma_buffer_extend.exit.i

19:                                               ; preds = %12
  %20 = getelementptr inbounds nuw i8, ptr %0, i64 152
  %21 = load i64, ptr %20, align 8, !tbaa !27
  %22 = getelementptr inbounds nuw i8, ptr %0, i64 160
  %23 = load i64, ptr %22, align 8, !tbaa !24
  %24 = sub i64 %21, %23
  %.not.i.i = icmp ult i64 %24, %14
  br i1 %.not.i.i, label %28, label %25

25:                                               ; preds = %19
  %26 = getelementptr inbounds nuw i8, ptr %0, i64 136
  %27 = load ptr, ptr %26, align 8, !tbaa !25
  br label %pmix_bfrops_base_tma_buffer_extend.exit.i

28:                                               ; preds = %19
  %29 = add i64 %23, %14
  %30 = load i64, ptr getelementptr inbounds nuw (i8, ptr @pmix_bfrops_globals, i64 288), align 8, !tbaa !28
  %.not54.i.i = icmp ult i64 %29, %30
  br i1 %.not54.i.i, label %36, label %31

31:                                               ; preds = %28
  %32 = add i64 %30, %29
  %.fr55.i.i = freeze i64 %32
  %33 = add i64 %.fr55.i.i, -1
  %34 = urem i64 %33, %30
  %35 = sub nuw i64 %33, %34
  br label %.loopexit.i.i

36:                                               ; preds = %28
  %37 = icmp eq i64 %21, 0
  %38 = load i64, ptr getelementptr inbounds nuw (i8, ptr @pmix_bfrops_globals, i64 280), align 8
  %spec.select.i.i = select i1 %37, i64 %38, i64 %21
  br label %39

39:                                               ; preds = %39, %36
  %.2.i.i = phi i64 [ %spec.select.i.i, %36 ], [ %41, %39 ]
  %40 = icmp ult i64 %.2.i.i, %29
  %41 = shl i64 %.2.i.i, 1
  br i1 %40, label %39, label %.loopexit.i.i, !llvm.loop !34

.loopexit.i.i:                                    ; preds = %39, %31
  %.045.i.i = phi i64 [ %35, %31 ], [ %.2.i.i, %39 ]
  br i1 %5, label %56, label %42

42:                                               ; preds = %.loopexit.i.i
  %43 = getelementptr inbounds nuw i8, ptr %0, i64 136
  %44 = load ptr, ptr %43, align 8, !tbaa !25
  %45 = ptrtoint ptr %44 to i64
  %46 = ptrtoint ptr %4 to i64
  %47 = sub i64 %45, %46
  %48 = getelementptr inbounds nuw i8, ptr %0, i64 144
  %49 = load ptr, ptr %48, align 8, !tbaa !26
  %50 = ptrtoint ptr %49 to i64
  %51 = sub i64 %50, %46
  %52 = tail call noalias noundef ptr @realloc(ptr noundef nonnull %4, i64 noundef %.045.i.i) #24
  %53 = getelementptr inbounds nuw i8, ptr %52, i64 %47
  %54 = load i64, ptr %20, align 8, !tbaa !27
  %55 = sub i64 %.045.i.i, %54
  tail call void @llvm.memset.p0.i64(ptr align 1 %53, i8 0, i64 %55, i1 false)
  br label %57

56:                                               ; preds = %.loopexit.i.i
  store i64 0, ptr %22, align 8, !tbaa !24
  %calloc.i.i = tail call ptr @calloc(i64 1, i64 %.045.i.i)
  br label %57

57:                                               ; preds = %56, %42
  %.sink.i.i = phi ptr [ %calloc.i.i, %56 ], [ %52, %42 ]
  %.044.i.i = phi i64 [ 0, %56 ], [ %47, %42 ]
  %.0.i.i = phi i64 [ 0, %56 ], [ %51, %42 ]
  store ptr %.sink.i.i, ptr %3, align 8, !tbaa !20
  %58 = icmp eq ptr %.sink.i.i, null
  br i1 %58, label %pmix_bfrops_base_tma_buffer_extend.exit.thread.i, label %59

59:                                               ; preds = %57
  %60 = getelementptr inbounds nuw i8, ptr %.sink.i.i, i64 %.044.i.i
  %61 = getelementptr inbounds nuw i8, ptr %0, i64 136
  store ptr %60, ptr %61, align 8, !tbaa !25
  %62 = getelementptr inbounds nuw i8, ptr %.sink.i.i, i64 %.0.i.i
  %63 = getelementptr inbounds nuw i8, ptr %0, i64 144
  store ptr %62, ptr %63, align 8, !tbaa !26
  store i64 %.045.i.i, ptr %20, align 8, !tbaa !27
  br label %pmix_bfrops_base_tma_buffer_extend.exit.i

pmix_bfrops_base_tma_buffer_extend.exit.i:        ; preds = %59, %25, %16
  %.046.i.i = phi ptr [ %18, %16 ], [ %27, %25 ], [ %60, %59 ]
  %64 = icmp eq ptr %.046.i.i, null
  br i1 %64, label %pmix_bfrops_base_tma_buffer_extend.exit.thread.i, label %66

pmix_bfrops_base_tma_buffer_extend.exit.thread.i: ; preds = %pmix_bfrops_base_tma_buffer_extend.exit.i, %57
  %65 = tail call ptr @PMIx_Error_string(i32 noundef -29) #23
  tail call void (i32, ptr, ...) @pmix_output(i32 noundef 0, ptr noundef nonnull @.str, ptr noundef %65, ptr noundef nonnull @.str.2, i32 noundef 167) #23
  br label %pmix_bfrops_base_tma_embed_payload.exit

66:                                               ; preds = %pmix_bfrops_base_tma_buffer_extend.exit.i
  %67 = load ptr, ptr %1, align 8, !tbaa !37
  %68 = load i64, ptr %13, align 8, !tbaa !39
  tail call void @llvm.memcpy.p0.p0.i64(ptr nonnull align 1 %.046.i.i, ptr align 1 %67, i64 %68, i1 false)
  %69 = load i64, ptr %13, align 8, !tbaa !39
  %70 = getelementptr inbounds nuw i8, ptr %0, i64 160
  %71 = load i64, ptr %70, align 8, !tbaa !24
  %72 = add i64 %71, %69
  store i64 %72, ptr %70, align 8, !tbaa !24
  %73 = getelementptr inbounds nuw i8, ptr %0, i64 136
  %74 = load ptr, ptr %73, align 8, !tbaa !25
  %75 = getelementptr inbounds nuw i8, ptr %74, i64 %69
  store ptr %75, ptr %73, align 8, !tbaa !25
  br label %pmix_bfrops_base_tma_embed_payload.exit

pmix_bfrops_base_tma_embed_payload.exit:          ; preds = %9, %pmix_bfrops_base_tma_buffer_extend.exit.thread.i, %66
  %.0.i = phi i32 [ -29, %pmix_bfrops_base_tma_buffer_extend.exit.thread.i ], [ 0, %66 ], [ 0, %9 ]
  ret i32 %.0.i
}